; Function Attrs: mustprogress uwtable
define internal noundef zeroext i1 @_ZNK32pxrInternal_v0_24__pxrReserved__12_GLOBAL__N_120_DispatchingResolver17_IsRepositoryPathERKNSt7__cxx1112basic_stringIcSt11char_traitsIcESaIcEEE(ptr nocapture noundef nonnull readonly align 8 dereferenceable(320) %0, ptr noundef nonnull align 8 dereferenceable(32) %1) unnamed_addr #0 align 2 personality ptr @__gxx_personality_v0 {
  %3 = alloca %"struct.std::pair.236", align 8
  %4 = tail call fastcc noundef ptr @_ZNK32pxrInternal_v0_24__pxrReserved__12_GLOBAL__N_120_DispatchingResolver15_GetURIResolverERKNSt7__cxx1112basic_stringIcSt11char_traitsIcESaIcEEEPPKNS0_13_ResolverInfoE(ptr noundef nonnull readonly align 8 dereferenceable(320) %0, ptr noundef nonnull align 8 dereferenceable(32) %1, ptr noundef null)
  %.not.i = icmp eq ptr %4, null
  br i1 %.not.i, label %5, label %_ZNK32pxrInternal_v0_24__pxrReserved__12_GLOBAL__N_120_DispatchingResolver12_GetResolverERKNSt7__cxx1112basic_stringIcSt11char_traitsIcESaIcEEEPPKNS0_13_ResolverInfoE.exit

5:                                                ; preds = %2
  %6 = getelementptr inbounds nuw i8, ptr %0, i64 8
  %.val.i = load ptr, ptr %6, align 8
  %7 = tail call fastcc noundef ptr @_ZN32pxrInternal_v0_24__pxrReserved__12_GLOBAL__N_115_PluginResolverINS_10ArResolverENS_22Ar_ResolverFactoryBaseEE3GetEv(ptr noundef nonnull align 8 dereferenceable(88) %.val.i)
  br label %_ZNK32pxrInternal_v0_24__pxrReserved__12_GLOBAL__N_120_DispatchingResolver12_GetResolverERKNSt7__cxx1112basic_stringIcSt11char_traitsIcESaIcEEEPPKNS0_13_ResolverInfoE.exit

_ZNK32pxrInternal_v0_24__pxrReserved__12_GLOBAL__N_120_DispatchingResolver12_GetResolverERKNSt7__cxx1112basic_stringIcSt11char_traitsIcESaIcEEEPPKNS0_13_ResolverInfoE.exit: ; preds = %2, %5
  %.0.i = phi ptr [ %7, %5 ], [ %4, %2 ]
  %8 = tail call noundef zeroext i1 @_ZN32pxrInternal_v0_24__pxrReserved__23ArIsPackageRelativePathERKNSt7__cxx1112basic_stringIcSt11char_traitsIcESaIcEEE(ptr noundef nonnull align 8 dereferenceable(32) %1)
  br i1 %8, label %9, label %18

9:                                                ; preds = %_ZNK32pxrInternal_v0_24__pxrReserved__12_GLOBAL__N_120_DispatchingResolver12_GetResolverERKNSt7__cxx1112basic_stringIcSt11char_traitsIcESaIcEEEPPKNS0_13_ResolverInfoE.exit
  call void @_ZN32pxrInternal_v0_24__pxrReserved__31ArSplitPackageRelativePathOuterERKNSt7__cxx1112basic_stringIcSt11char_traitsIcESaIcEEE(ptr dead_on_unwind nonnull writable sret(%"struct.std::pair.236") align 8 %3, ptr noundef nonnull align 8 dereferenceable(32) %1)
  %10 = load ptr, ptr %.0.i, align 8
  %11 = getelementptr inbounds i8, ptr %10, i64 176
  %12 = load ptr, ptr %11, align 8
  %13 = invoke noundef zeroext i1 %12(ptr noundef nonnull align 8 dereferenceable(8) %.0.i, ptr noundef nonnull align 8 dereferenceable(32) %3)
          to label %_ZNK32pxrInternal_v0_24__pxrReserved__10ArResolver16IsRepositoryPathERKNSt7__cxx1112basic_stringIcSt11char_traitsIcESaIcEEE.exit unwind label %15

_ZNK32pxrInternal_v0_24__pxrReserved__10ArResolver16IsRepositoryPathERKNSt7__cxx1112basic_stringIcSt11char_traitsIcESaIcEEE.exit: ; preds = %9
  %14 = getelementptr inbounds nuw i8, ptr %3, i64 32
  call void @_ZNSt7__cxx1112basic_stringIcSt11char_traitsIcESaIcEED1Ev(ptr noundef nonnull align 8 dereferenceable(32) %14) #15
  call void @_ZNSt7__cxx1112basic_stringIcSt11char_traitsIcESaIcEED1Ev(ptr noundef nonnull align 8 dereferenceable(32) %3) #15
  br label %23

15:                                               ; preds = %9
  %16 = landingpad { ptr, i32 }
          cleanup
  %17 = getelementptr inbounds nuw i8, ptr %3, i64 32
  call void @_ZNSt7__cxx1112basic_stringIcSt11char_traitsIcESaIcEED1Ev(ptr noundef nonnull align 8 dereferenceable(32) %17) #15
  call void @_ZNSt7__cxx1112basic_stringIcSt11char_traitsIcESaIcEED1Ev(ptr noundef nonnull align 8 dereferenceable(32) %3) #15
  resume { ptr, i32 } %16

18:                                               ; preds = %_ZNK32pxrInternal_v0_24__pxrReserved__12_GLOBAL__N_120_DispatchingResolver12_GetResolverERKNSt7__cxx1112basic_stringIcSt11char_traitsIcESaIcEEEPPKNS0_13_ResolverInfoE.exit
  %19 = load ptr, ptr %.0.i, align 8
  %20 = getelementptr inbounds i8, ptr %19, i64 176
  %21 = load ptr, ptr %20, align 8
  %22 = tail call noundef zeroext i1 %21(ptr noundef nonnull align 8 dereferenceable(8) %.0.i, ptr noundef nonnull align 8 dereferenceable(32) %1)
  br label %23

23:                                               ; preds = %18, %_ZNK32pxrInternal_v0_24__pxrReserved__10ArResolver16IsRepositoryPathERKNSt7__cxx1112basic_stringIcSt11char_traitsIcESaIcEEE.exit
  %.0 = phi i1 [ %13, %_ZNK32pxrInternal_v0_24__pxrReserved__10ArResolver16IsRepositoryPathERKNSt7__cxx1112basic_stringIcSt11char_traitsIcESaIcEEE.exit ], [ %22, %18 ]
  ret i1 %.0
}